; Function Attrs: nofree norecurse nosync nounwind memory(write, argmem: readwrite, inaccessiblemem: none) uwtable
define void @PaUtil_SetInterleavedInputChannels(ptr nocapture noundef readonly %0, i32 noundef %1, ptr noundef %2, i32 noundef %3) local_unnamed_addr #6 {
  %5 = icmp eq i32 %3, 0
  br i1 %5, label %6, label %.lr.ph

6:                                                ; preds = %4
  %7 = getelementptr inbounds nuw i8, ptr %0, i64 40
  %8 = load i32, ptr %7, align 8
  %.not = icmp eq i32 %8, 0
  br i1 %.not, label %._crit_edge, label %.lr.ph

.lr.ph:                                           ; preds = %4, %6
  %.01624 = phi i32 [ %8, %6 ], [ %3, %4 ]
  %9 = getelementptr inbounds nuw i8, ptr %0, i64 208
  %10 = getelementptr inbounds nuw i8, ptr %0, i64 44
  %wide.trip.count = zext i32 %.01624 to i64
  br label %11

11:                                               ; preds = %.lr.ph, %11
  %indvars.iv = phi i64 [ 0, %.lr.ph ], [ %indvars.iv.next, %11 ]
  %.020 = phi ptr [ %2, %.lr.ph ], [ %19, %11 ]
  %12 = load ptr, ptr %9, align 8
  %13 = trunc nuw i64 %indvars.iv to i32
  %14 = add i32 %1, %13
  %15 = zext i32 %14 to i64
  %16 = getelementptr inbounds %struct.PaUtilChannelDescriptor, ptr %12, i64 %15
  store ptr %.020, ptr %16, align 8
  %17 = load i32, ptr %10, align 4
  %18 = zext i32 %17 to i64
  %19 = getelementptr inbounds i8, ptr %.020, i64 %18
  %20 = load ptr, ptr %9, align 8
  %21 = getelementptr inbounds %struct.PaUtilChannelDescriptor, ptr %20, i64 %15, i32 1
  store i32 %.01624, ptr %21, align 8
  %indvars.iv.next = add nuw nsw i64 %indvars.iv, 1
  %exitcond.not = icmp eq i64 %indvars.iv.next, %wide.trip.count
  br i1 %exitcond.not, label %._crit_edge, label %11, !llvm.loop !6

._crit_edge:                                      ; preds = %11, %6
  ret void
}